target datalayout = "e-m:e-p270:32:32-p271:32:32-p272:64:64-i64:64-i128:128-f80:128-n8:16:32:64-S128"
target triple = "x86_64-unknown-linux-gnu"

@lambda_tbl = dso_local global [283 x double] zeroinitializer, align 16
@rgb_tbl = dso_local global [3 x [283 x double]] zeroinitializer, align 16
@rgb_to_xyz = dso_local global [3 x [3 x double]] zeroinitializer, align 16
@xyz_to_rgb = dso_local global [3 x [3 x double]] zeroinitializer, align 16
@xyz_whitepoint = dso_local global [3 x double] zeroinitializer, align 16
@_ZL10xyz_to_xyz = internal constant [3 x [3 x double]] [[3 x double] [double 1.000000e+00, double 0.000000e+00, double 0.000000e+00], [3 x double] [double 0.000000e+00, double 1.000000e+00, double 0.000000e+00], [3 x double] [double 0.000000e+00, double 0.000000e+00, double 1.000000e+00]], align 16
@.str = private unnamed_addr constant [41 x i8] c"init_gamut(): invalid/unsupported gamut.\00", align 1
@_ZTISt13runtime_error = external constant ptr

; Function Attrs: mustprogress nounwind uwtable
define dso_local noundef double @_Z10cie_interpPKdd(ptr noundef %data, double noundef %x) #4 {
entry:
  %data.addr = alloca ptr, align 8
  %x.addr = alloca double, align 8
  %offset = alloca i32, align 4
  %weight = alloca double, align 8
  store ptr %data, ptr %data.addr, align 8
  store double %x, ptr %x.addr, align 8
  %0 = load double, ptr %x.addr, align 8
  %sub = fsub double %0, 3.600000e+02
  store double %sub, ptr %x.addr, align 8
  %1 = load double, ptr %x.addr, align 8
  %mul = fmul double %1, 2.000000e-01
  store double %mul, ptr %x.addr, align 8
  %2 = load double, ptr %x.addr, align 8
  %conv = fptosi double %2 to i32
  store i32 %conv, ptr %offset, align 4
  %3 = load i32, ptr %offset, align 4
  %cmp = icmp slt i32 %3, 0
  br i1 %cmp, label %if.then, label %if.end

if.then:                                          ; preds = %entry
  store i32 0, ptr %offset, align 4
  br label %if.end

if.end:                                           ; preds = %if.then, %entry
  %4 = load i32, ptr %offset, align 4
  %cmp1 = icmp sgt i32 %4, 93
  br i1 %cmp1, label %if.then2, label %if.end3

if.then2:                                         ; preds = %if.end
  store i32 93, ptr %offset, align 4
  br label %if.end3

if.end3:                                          ; preds = %if.then2, %if.end
  %5 = load double, ptr %x.addr, align 8
  %6 = load i32, ptr %offset, align 4
  %conv4 = sitofp i32 %6 to double
  %sub5 = fsub double %5, %conv4
  store double %sub5, ptr %weight, align 8
  %7 = load double, ptr %weight, align 8
  %sub6 = fsub double 1.000000e+00, %7
  %8 = load ptr, ptr %data.addr, align 8
  %9 = load i32, ptr %offset, align 4
  %idxprom = sext i32 %9 to i64
  %arrayidx = getelementptr inbounds double, ptr %8, i64 %idxprom
  %10 = load double, ptr %arrayidx, align 8
  %mul7 = fmul double %sub6, %10
  %11 = load double, ptr %weight, align 8
  %12 = load ptr, ptr %data.addr, align 8
  %13 = load i32, ptr %offset, align 4
  %add = add nsw i32 %13, 1
  %idxprom8 = sext i32 %add to i64
  %arrayidx9 = getelementptr inbounds double, ptr %12, i64 %idxprom8
  %14 = load double, ptr %arrayidx9, align 8
  %mul10 = fmul double %11, %14
  %add11 = fadd double %mul7, %mul10
  ret double %add11
}

; Function Attrs: mustprogress uwtable
define dso_local void @_Z11init_tables5Gamut(i32 noundef %gamut) #6 personality ptr @__gxx_personality_v0 {
entry:
  %gamut.addr = alloca i32, align 4
  %h = alloca double, align 8
  %illuminant = alloca ptr, align 8
  %exn.slot = alloca ptr, align 8
  %ehselector.slot = alloca i32, align 4
  %i = alloca i32, align 4
  %lambda = alloca double, align 8
  %xyz = alloca [3 x double], align 16
  %I = alloca double, align 8
  %weight = alloca double, align 8
  %k = alloca i32, align 4
  %j = alloca i32, align 4
  %i43 = alloca i32, align 4
  store i32 %gamut, ptr %gamut.addr, align 4
  call void @llvm.memset.p0.i64(ptr align 16 @rgb_tbl, i8 0, i64 6792, i1 false)
  call void @llvm.memset.p0.i64(ptr align 16 @xyz_whitepoint, i8 0, i64 24, i1 false)
  store double 0x3FFAAAAAAAAAAAAB, ptr %h, align 8
  store ptr null, ptr %illuminant, align 8
  %0 = load i32, ptr %gamut.addr, align 4
  switch i32 %0, label %sw.default [
    i32 0, label %sw.bb
    i32 4, label %sw.bb1
    i32 5, label %sw.bb2
    i32 1, label %sw.bb3
    i32 2, label %sw.bb4
    i32 3, label %sw.bb5
    i32 6, label %sw.bb6
  ]

sw.bb:                                            ; preds = %entry
  store ptr @_ZL7cie_d65, ptr %illuminant, align 8
  call void @llvm.memcpy.p0.p0.i64(ptr align 16 @xyz_to_rgb, ptr align 16 @_ZL11xyz_to_srgb, i64 72, i1 false)
  call void @llvm.memcpy.p0.p0.i64(ptr align 16 @rgb_to_xyz, ptr align 16 @_ZL11srgb_to_xyz, i64 72, i1 false)
  br label %sw.epilog

sw.bb1:                                           ; preds = %entry
  store ptr @_ZL5cie_e, ptr %illuminant, align 8
  call void @llvm.memcpy.p0.p0.i64(ptr align 16 @xyz_to_rgb, ptr align 16 @_ZL11xyz_to_ergb, i64 72, i1 false)
  call void @llvm.memcpy.p0.p0.i64(ptr align 16 @rgb_to_xyz, ptr align 16 @_ZL11ergb_to_xyz, i64 72, i1 false)
  br label %sw.epilog

sw.bb2:                                           ; preds = %entry
  store ptr @_ZL5cie_e, ptr %illuminant, align 8
  call void @llvm.memcpy.p0.p0.i64(ptr align 16 @xyz_to_rgb, ptr align 16 @_ZL10xyz_to_xyz, i64 72, i1 false)
  call void @llvm.memcpy.p0.p0.i64(ptr align 16 @rgb_to_xyz, ptr align 16 @_ZL10xyz_to_xyz, i64 72, i1 false)
  br label %sw.epilog

sw.bb3:                                           ; preds = %entry
  store ptr @_ZL7cie_d50, ptr %illuminant, align 8
  call void @llvm.memcpy.p0.p0.i64(ptr align 16 @xyz_to_rgb, ptr align 16 @_ZL19xyz_to_prophoto_rgb, i64 72, i1 false)
  call void @llvm.memcpy.p0.p0.i64(ptr align 16 @rgb_to_xyz, ptr align 16 @_ZL19prophoto_rgb_to_xyz, i64 72, i1 false)
  br label %sw.epilog

sw.bb4:                                           ; preds = %entry
  store ptr @_ZL7cie_d60, ptr %illuminant, align 8
  call void @llvm.memcpy.p0.p0.i64(ptr align 16 @xyz_to_rgb, ptr align 16 @_ZL17xyz_to_aces2065_1, i64 72, i1 false)
  call void @llvm.memcpy.p0.p0.i64(ptr align 16 @rgb_to_xyz, ptr align 16 @_ZL17aces2065_1_to_xyz, i64 72, i1 false)
  br label %sw.epilog

sw.bb5:                                           ; preds = %entry
  store ptr @_ZL7cie_d65, ptr %illuminant, align 8
  call void @llvm.memcpy.p0.p0.i64(ptr align 16 @xyz_to_rgb, ptr align 16 @_ZL14xyz_to_rec2020, i64 72, i1 false)
  call void @llvm.memcpy.p0.p0.i64(ptr align 16 @rgb_to_xyz, ptr align 16 @_ZL14rec2020_to_xyz, i64 72, i1 false)
  br label %sw.epilog

sw.bb6:                                           ; preds = %entry
  store ptr @_ZL7cie_d65, ptr %illuminant, align 8
  call void @llvm.memcpy.p0.p0.i64(ptr align 16 @xyz_to_rgb, ptr align 16 @_ZL12xyz_to_dcip3, i64 72, i1 false)
  call void @llvm.memcpy.p0.p0.i64(ptr align 16 @rgb_to_xyz, ptr align 16 @_ZL12dcip3_to_xyz, i64 72, i1 false)
  br label %sw.epilog

sw.default:                                       ; preds = %entry
  %exception = call ptr @__cxa_allocate_exception(i64 16) #3
  invoke void @_ZNSt13runtime_errorC1EPKc(ptr noundef nonnull align 8 dereferenceable(16) %exception, ptr noundef @.str)
          to label %invoke.cont unwind label %lpad

invoke.cont:                                      ; preds = %sw.default
  call void @__cxa_throw(ptr %exception, ptr @_ZTISt13runtime_error, ptr @_ZNSt13runtime_errorD1Ev) #19
  unreachable

lpad:                                             ; preds = %sw.default
  %1 = landingpad { ptr, i32 }
          cleanup
  %2 = extractvalue { ptr, i32 } %1, 0
  store ptr %2, ptr %exn.slot, align 8
  %3 = extractvalue { ptr, i32 } %1, 1
  store i32 %3, ptr %ehselector.slot, align 4
  call void @__cxa_free_exception(ptr %exception) #3
  br label %eh.resume

sw.epilog:                                        ; preds = %sw.bb6, %sw.bb5, %sw.bb4, %sw.bb3, %sw.bb2, %sw.bb1, %sw.bb
  store i32 0, ptr %i, align 4
  br label %for.cond

for.cond:                                         ; preds = %for.inc57, %sw.epilog
  %4 = load i32, ptr %i, align 4
  %cmp = icmp slt i32 %4, 283
  br i1 %cmp, label %for.body, label %for.end59

for.body:                                         ; preds = %for.cond
  %5 = load i32, ptr %i, align 4
  %conv = sitofp i32 %5 to double
  %6 = load double, ptr %h, align 8
  %mul = fmul double %conv, %6
  %add = fadd double 3.600000e+02, %mul
  store double %add, ptr %lambda, align 8
  %arrayinit.begin = getelementptr inbounds [3 x double], ptr %xyz, i64 0, i64 0
  %7 = load double, ptr %lambda, align 8
  %call = call noundef double @_Z10cie_interpPKdd(ptr noundef @_ZL5cie_x, double noundef %7)
  store double %call, ptr %arrayinit.begin, align 8
  %arrayinit.element = getelementptr inbounds double, ptr %arrayinit.begin, i64 1
  %8 = load double, ptr %lambda, align 8
  %call7 = call noundef double @_Z10cie_interpPKdd(ptr noundef @_ZL5cie_y, double noundef %8)
  store double %call7, ptr %arrayinit.element, align 8
  %arrayinit.element8 = getelementptr inbounds double, ptr %arrayinit.element, i64 1
  %9 = load double, ptr %lambda, align 8
  %call9 = call noundef double @_Z10cie_interpPKdd(ptr noundef @_ZL5cie_z, double noundef %9)
  store double %call9, ptr %arrayinit.element8, align 8
  %10 = load ptr, ptr %illuminant, align 8
  %11 = load double, ptr %lambda, align 8
  %call10 = call noundef double @_Z10cie_interpPKdd(ptr noundef %10, double noundef %11)
  store double %call10, ptr %I, align 8
  %12 = load double, ptr %h, align 8
  %mul11 = fmul double 3.750000e-01, %12
  store double %mul11, ptr %weight, align 8
  %13 = load i32, ptr %i, align 4
  %cmp12 = icmp eq i32 %13, 0
  br i1 %cmp12, label %if.then, label %lor.lhs.false

lor.lhs.false:                                    ; preds = %for.body
  %14 = load i32, ptr %i, align 4
  %cmp13 = icmp eq i32 %14, 282
  br i1 %cmp13, label %if.then, label %if.else

if.then:                                          ; preds = %lor.lhs.false, %for.body
  br label %if.end19

if.else:                                          ; preds = %lor.lhs.false
  %15 = load i32, ptr %i, align 4
  %sub = sub nsw i32 %15, 1
  %rem = srem i32 %sub, 3
  %cmp14 = icmp eq i32 %rem, 2
  br i1 %cmp14, label %if.then15, label %if.else17

if.then15:                                        ; preds = %if.else
  %16 = load double, ptr %weight, align 8
  %mul16 = fmul double %16, 2.000000e+00
  store double %mul16, ptr %weight, align 8
  br label %if.end

if.else17:                                        ; preds = %if.else
  %17 = load double, ptr %weight, align 8
  %mul18 = fmul double %17, 3.000000e+00
  store double %mul18, ptr %weight, align 8
  br label %if.end

if.end:                                           ; preds = %if.else17, %if.then15
  br label %if.end19

if.end19:                                         ; preds = %if.end, %if.then
  %18 = load double, ptr %lambda, align 8
  %19 = load i32, ptr %i, align 4
  %idxprom = sext i32 %19 to i64
  %arrayidx = getelementptr inbounds [283 x double], ptr @lambda_tbl, i64 0, i64 %idxprom
  store double %18, ptr %arrayidx, align 8
  store i32 0, ptr %k, align 4
  br label %for.cond20

for.cond20:                                       ; preds = %for.inc40, %if.end19
  %20 = load i32, ptr %k, align 4
  %cmp21 = icmp slt i32 %20, 3
  br i1 %cmp21, label %for.body22, label %for.end42

for.body22:                                       ; preds = %for.cond20
  store i32 0, ptr %j, align 4
  br label %for.cond23

for.cond23:                                       ; preds = %for.inc, %for.body22
  %21 = load i32, ptr %j, align 4
  %cmp24 = icmp slt i32 %21, 3
  br i1 %cmp24, label %for.body25, label %for.end

for.body25:                                       ; preds = %for.cond23
  %22 = load i32, ptr %k, align 4
  %idxprom26 = sext i32 %22 to i64
  %arrayidx27 = getelementptr inbounds [3 x [3 x double]], ptr @xyz_to_rgb, i64 0, i64 %idxprom26
  %23 = load i32, ptr %j, align 4
  %idxprom28 = sext i32 %23 to i64
  %arrayidx29 = getelementptr inbounds [3 x double], ptr %arrayidx27, i64 0, i64 %idxprom28
  %24 = load double, ptr %arrayidx29, align 8
  %25 = load i32, ptr %j, align 4
  %idxprom30 = sext i32 %25 to i64
  %arrayidx31 = getelementptr inbounds [3 x double], ptr %xyz, i64 0, i64 %idxprom30
  %26 = load double, ptr %arrayidx31, align 8
  %mul32 = fmul double %24, %26
  %27 = load double, ptr %I, align 8
  %mul33 = fmul double %mul32, %27
  %28 = load double, ptr %weight, align 8
  %mul34 = fmul double %mul33, %28
  %29 = load i32, ptr %k, align 4
  %idxprom35 = sext i32 %29 to i64
  %arrayidx36 = getelementptr inbounds [3 x [283 x double]], ptr @rgb_tbl, i64 0, i64 %idxprom35
  %30 = load i32, ptr %i, align 4
  %idxprom37 = sext i32 %30 to i64
  %arrayidx38 = getelementptr inbounds [283 x double], ptr %arrayidx36, i64 0, i64 %idxprom37
  %31 = load double, ptr %arrayidx38, align 8
  %add39 = fadd double %31, %mul34
  store double %add39, ptr %arrayidx38, align 8
  br label %for.inc

for.inc:                                          ; preds = %for.body25
  %32 = load i32, ptr %j, align 4
  %inc = add nsw i32 %32, 1
  store i32 %inc, ptr %j, align 4
  br label %for.cond23, !llvm.loop !16

for.end:                                          ; preds = %for.cond23
  br label %for.inc40

for.inc40:                                        ; preds = %for.end
  %33 = load i32, ptr %k, align 4
  %inc41 = add nsw i32 %33, 1
  store i32 %inc41, ptr %k, align 4
  br label %for.cond20, !llvm.loop !17

for.end42:                                        ; preds = %for.cond20
  store i32 0, ptr %i43, align 4
  br label %for.cond44

for.cond44:                                       ; preds = %for.inc54, %for.end42
  %34 = load i32, ptr %i43, align 4
  %cmp45 = icmp slt i32 %34, 3
  br i1 %cmp45, label %for.body46, label %for.end56

for.body46:                                       ; preds = %for.cond44
  %35 = load i32, ptr %i43, align 4
  %idxprom47 = sext i32 %35 to i64
  %arrayidx48 = getelementptr inbounds [3 x double], ptr %xyz, i64 0, i64 %idxprom47
  %36 = load double, ptr %arrayidx48, align 8
  %37 = load double, ptr %I, align 8
  %mul49 = fmul double %36, %37
  %38 = load double, ptr %weight, align 8
  %mul50 = fmul double %mul49, %38
  %39 = load i32, ptr %i43, align 4
  %idxprom51 = sext i32 %39 to i64
  %arrayidx52 = getelementptr inbounds [3 x double], ptr @xyz_whitepoint, i64 0, i64 %idxprom51
  %40 = load double, ptr %arrayidx52, align 8
  %add53 = fadd double %40, %mul50
  store double %add53, ptr %arrayidx52, align 8
  br label %for.inc54

for.inc54:                                        ; preds = %for.body46
  %41 = load i32, ptr %i43, align 4
  %inc55 = add nsw i32 %41, 1
  store i32 %inc55, ptr %i43, align 4
  br label %for.cond44, !llvm.loop !18

for.end56:                                        ; preds = %for.cond44
  br label %for.inc57

for.inc57:                                        ; preds = %for.end56
  %42 = load i32, ptr %i, align 4
  %inc58 = add nsw i32 %42, 1
  store i32 %inc58, ptr %i, align 4
  br label %for.cond, !llvm.loop !19

for.end59:                                        ; preds = %for.cond
  ret void

eh.resume:                                        ; preds = %lpad
  %exn = load ptr, ptr %exn.slot, align 8
  %sel = load i32, ptr %ehselector.slot, align 4
  %lpad.val = insertvalue { ptr, i32 } poison, ptr %exn, 0
  %lpad.val60 = insertvalue { ptr, i32 } %lpad.val, i32 %sel, 1
  resume { ptr, i32 } %lpad.val60
}