; Function Attrs: mustprogress uwtable
define dso_local void @_Z11init_tables5Gamut(i32 noundef %gamut) local_unnamed_addr #9 personality ptr @__gxx_personality_v0 {
entry:
  %xyz = alloca [3 x double], align 16
  tail call void @llvm.memset.p0.i64(ptr noundef nonnull align 16 dereferenceable(6792) @rgb_tbl, i8 0, i64 6792, i1 false)
  tail call void @llvm.memset.p0.i64(ptr noundef nonnull align 16 dereferenceable(24) @xyz_whitepoint, i8 0, i64 24, i1 false)
  switch i32 %gamut, label %sw.default [
    i32 0, label %sw.bb
    i32 4, label %sw.bb1
    i32 5, label %sw.bb2
    i32 1, label %sw.bb3
    i32 2, label %sw.bb4
    i32 3, label %sw.bb5
    i32 6, label %sw.bb6
  ]

sw.bb:                                            ; preds = %entry
  tail call void @llvm.memcpy.p0.p0.i64(ptr noundef nonnull align 16 dereferenceable(72) @xyz_to_rgb, ptr noundef nonnull align 16 dereferenceable(72) @_ZL11xyz_to_srgb, i64 72, i1 false)
  tail call void @llvm.memcpy.p0.p0.i64(ptr noundef nonnull align 16 dereferenceable(72) @rgb_to_xyz, ptr noundef nonnull align 16 dereferenceable(72) @_ZL11srgb_to_xyz, i64 72, i1 false)
  br label %sw.epilog

sw.bb1:                                           ; preds = %entry
  tail call void @llvm.memcpy.p0.p0.i64(ptr noundef nonnull align 16 dereferenceable(72) @xyz_to_rgb, ptr noundef nonnull align 16 dereferenceable(72) @_ZL11xyz_to_ergb, i64 72, i1 false)
  tail call void @llvm.memcpy.p0.p0.i64(ptr noundef nonnull align 16 dereferenceable(72) @rgb_to_xyz, ptr noundef nonnull align 16 dereferenceable(72) @_ZL11ergb_to_xyz, i64 72, i1 false)
  br label %sw.epilog

sw.bb2:                                           ; preds = %entry
  tail call void @llvm.memcpy.p0.p0.i64(ptr noundef nonnull align 16 dereferenceable(72) @xyz_to_rgb, ptr noundef nonnull align 16 dereferenceable(72) @_ZL10xyz_to_xyz, i64 72, i1 false)
  tail call void @llvm.memcpy.p0.p0.i64(ptr noundef nonnull align 16 dereferenceable(72) @rgb_to_xyz, ptr noundef nonnull align 16 dereferenceable(72) @_ZL10xyz_to_xyz, i64 72, i1 false)
  br label %sw.epilog

sw.bb3:                                           ; preds = %entry
  tail call void @llvm.memcpy.p0.p0.i64(ptr noundef nonnull align 16 dereferenceable(72) @xyz_to_rgb, ptr noundef nonnull align 16 dereferenceable(72) @_ZL19xyz_to_prophoto_rgb, i64 72, i1 false)
  tail call void @llvm.memcpy.p0.p0.i64(ptr noundef nonnull align 16 dereferenceable(72) @rgb_to_xyz, ptr noundef nonnull align 16 dereferenceable(72) @_ZL19prophoto_rgb_to_xyz, i64 72, i1 false)
  br label %sw.epilog

sw.bb4:                                           ; preds = %entry
  tail call void @llvm.memcpy.p0.p0.i64(ptr noundef nonnull align 16 dereferenceable(72) @xyz_to_rgb, ptr noundef nonnull align 16 dereferenceable(72) @_ZL17xyz_to_aces2065_1, i64 72, i1 false)
  tail call void @llvm.memcpy.p0.p0.i64(ptr noundef nonnull align 16 dereferenceable(72) @rgb_to_xyz, ptr noundef nonnull align 16 dereferenceable(72) @_ZL17aces2065_1_to_xyz, i64 72, i1 false)
  br label %sw.epilog

sw.bb5:                                           ; preds = %entry
  tail call void @llvm.memcpy.p0.p0.i64(ptr noundef nonnull align 16 dereferenceable(72) @xyz_to_rgb, ptr noundef nonnull align 16 dereferenceable(72) @_ZL14xyz_to_rec2020, i64 72, i1 false)
  tail call void @llvm.memcpy.p0.p0.i64(ptr noundef nonnull align 16 dereferenceable(72) @rgb_to_xyz, ptr noundef nonnull align 16 dereferenceable(72) @_ZL14rec2020_to_xyz, i64 72, i1 false)
  br label %sw.epilog

sw.bb6:                                           ; preds = %entry
  tail call void @llvm.memcpy.p0.p0.i64(ptr noundef nonnull align 16 dereferenceable(72) @xyz_to_rgb, ptr noundef nonnull align 16 dereferenceable(72) @_ZL12xyz_to_dcip3, i64 72, i1 false)
  tail call void @llvm.memcpy.p0.p0.i64(ptr noundef nonnull align 16 dereferenceable(72) @rgb_to_xyz, ptr noundef nonnull align 16 dereferenceable(72) @_ZL12dcip3_to_xyz, i64 72, i1 false)
  br label %sw.epilog

sw.default:                                       ; preds = %entry
  %exception = tail call ptr @__cxa_allocate_exception(i64 16) #31
  invoke void @_ZNSt13runtime_errorC1EPKc(ptr noundef nonnull align 8 dereferenceable(16) %exception, ptr noundef nonnull @.str)
          to label %invoke.cont unwind label %lpad

invoke.cont:                                      ; preds = %sw.default
  tail call void @__cxa_throw(ptr nonnull %exception, ptr nonnull @_ZTISt13runtime_error, ptr nonnull @_ZNSt13runtime_errorD1Ev) #32
  unreachable

lpad:                                             ; preds = %sw.default
  %0 = landingpad { ptr, i32 }
          cleanup
  tail call void @__cxa_free_exception(ptr %exception) #31
  resume { ptr, i32 } %0

sw.epilog:                                        ; preds = %sw.bb6, %sw.bb5, %sw.bb4, %sw.bb3, %sw.bb2, %sw.bb1, %sw.bb
  %illuminant.0 = phi ptr [ @_ZL7cie_d65, %sw.bb6 ], [ @_ZL7cie_d65, %sw.bb5 ], [ @_ZL7cie_d60, %sw.bb4 ], [ @_ZL7cie_d50, %sw.bb3 ], [ @_ZL5cie_e, %sw.bb2 ], [ @_ZL5cie_e, %sw.bb1 ], [ @_ZL7cie_d65, %sw.bb ]
  %arrayinit.element = getelementptr inbounds i8, ptr %xyz, i64 8
  %arrayinit.element8 = getelementptr inbounds i8, ptr %xyz, i64 16
  br label %for.body

for.body:                                         ; preds = %sw.epilog, %for.inc57
  %indvars.iv83 = phi i64 [ 0, %sw.epilog ], [ %indvars.iv.next84, %for.inc57 ]
  %1 = trunc i64 %indvars.iv83 to i32
  %conv = sitofp i32 %1 to double
  %mul = fmul double %conv, 0x3FFAAAAAAAAAAAAB
  %add = fadd double %mul, 3.600000e+02
  %sub.i = fadd double %add, -3.600000e+02
  %mul.i = fmul double %sub.i, 2.000000e-01
  %conv.i = fptosi double %mul.i to i32
  %spec.store.select.i = tail call i32 @llvm.smax.i32(i32 %conv.i, i32 0)
  %spec.store.select1.i = tail call i32 @llvm.umin.i32(i32 %spec.store.select.i, i32 93)
  %conv4.i = sitofp i32 %spec.store.select1.i to double
  %sub5.i = fsub double %mul.i, %conv4.i
  %sub6.i = fsub double 1.000000e+00, %sub5.i
  %idxprom.i = zext nneg i32 %spec.store.select1.i to i64
  %arrayidx.i = getelementptr inbounds double, ptr @_ZL5cie_x, i64 %idxprom.i
  %2 = load double, ptr %arrayidx.i, align 8
  %mul7.i = fmul double %sub6.i, %2
  %arrayidx9.i = getelementptr i8, ptr %arrayidx.i, i64 8
  %3 = load double, ptr %arrayidx9.i, align 8
  %mul10.i = fmul double %sub5.i, %3
  %add11.i = fadd double %mul7.i, %mul10.i
  store double %add11.i, ptr %xyz, align 16
  %arrayidx.i35 = getelementptr inbounds double, ptr @_ZL5cie_y, i64 %idxprom.i
  %4 = load double, ptr %arrayidx.i35, align 8
  %mul7.i36 = fmul double %sub6.i, %4
  %arrayidx9.i37 = getelementptr i8, ptr %arrayidx.i35, i64 8
  %5 = load double, ptr %arrayidx9.i37, align 8
  %mul10.i38 = fmul double %sub5.i, %5
  %add11.i39 = fadd double %mul7.i36, %mul10.i38
  store double %add11.i39, ptr %arrayinit.element, align 8
  %arrayidx.i49 = getelementptr inbounds double, ptr @_ZL5cie_z, i64 %idxprom.i
  %6 = load double, ptr %arrayidx.i49, align 8
  %mul7.i50 = fmul double %sub6.i, %6
  %arrayidx9.i51 = getelementptr i8, ptr %arrayidx.i49, i64 8
  %7 = load double, ptr %arrayidx9.i51, align 8
  %mul10.i52 = fmul double %sub5.i, %7
  %add11.i53 = fadd double %mul7.i50, %mul10.i52
  store double %add11.i53, ptr %arrayinit.element8, align 16
  %arrayidx.i63 = getelementptr inbounds double, ptr %illuminant.0, i64 %idxprom.i
  %8 = load double, ptr %arrayidx.i63, align 8
  %mul7.i64 = fmul double %sub6.i, %8
  %arrayidx9.i65 = getelementptr i8, ptr %arrayidx.i63, i64 8
  %9 = load double, ptr %arrayidx9.i65, align 8
  %mul10.i66 = fmul double %sub5.i, %9
  %add11.i67 = fadd double %mul7.i64, %mul10.i66
  switch i32 %1, label %if.else [
    i32 282, label %if.end19
    i32 0, label %if.end19
  ]

if.else:                                          ; preds = %for.body
  %10 = trunc i64 %indvars.iv83 to i16
  %rem68.lhs.trunc = add nsw i16 %10, -1
  %rem6869 = urem i16 %rem68.lhs.trunc, 3
  %cmp14 = icmp eq i16 %rem6869, 2
  %. = select i1 %cmp14, double 1.250000e+00, double 1.875000e+00
  br label %if.end19

if.end19:                                         ; preds = %if.else, %for.body, %for.body
  %weight.0 = phi double [ 6.250000e-01, %for.body ], [ 6.250000e-01, %for.body ], [ %., %if.else ]
  %arrayidx = getelementptr inbounds [283 x double], ptr @lambda_tbl, i64 0, i64 %indvars.iv83
  store double %add, ptr %arrayidx, align 8
  br label %for.cond23.preheader

for.cond23.preheader:                             ; preds = %if.end19, %for.inc40
  %indvars.iv75 = phi i64 [ 0, %if.end19 ], [ %indvars.iv.next76, %for.inc40 ]
  %arrayidx38 = getelementptr inbounds [3 x [283 x double]], ptr @rgb_tbl, i64 0, i64 %indvars.iv75, i64 %indvars.iv83
  %arrayidx38.promoted = load double, ptr %arrayidx38, align 8
  br label %for.body25

for.body25:                                       ; preds = %for.cond23.preheader, %for.body25
  %indvars.iv = phi i64 [ 0, %for.cond23.preheader ], [ %indvars.iv.next, %for.body25 ]
  %11 = phi double [ %arrayidx38.promoted, %for.cond23.preheader ], [ %add39, %for.body25 ]
  %arrayidx29 = getelementptr inbounds [3 x [3 x double]], ptr @xyz_to_rgb, i64 0, i64 %indvars.iv75, i64 %indvars.iv
  %12 = load double, ptr %arrayidx29, align 8
  %arrayidx31 = getelementptr inbounds [3 x double], ptr %xyz, i64 0, i64 %indvars.iv
  %13 = load double, ptr %arrayidx31, align 8
  %mul32 = fmul double %12, %13
  %mul33 = fmul double %add11.i67, %mul32
  %mul34 = fmul double %weight.0, %mul33
  %add39 = fadd double %11, %mul34
  %indvars.iv.next = add nuw nsw i64 %indvars.iv, 1
  %exitcond.not = icmp eq i64 %indvars.iv.next, 3
  br i1 %exitcond.not, label %for.inc40, label %for.body25, !llvm.loop !16

for.inc40:                                        ; preds = %for.body25
  store double %add39, ptr %arrayidx38, align 8
  %indvars.iv.next76 = add nuw nsw i64 %indvars.iv75, 1
  %exitcond78.not = icmp eq i64 %indvars.iv.next76, 3
  br i1 %exitcond78.not, label %for.body46, label %for.cond23.preheader, !llvm.loop !17

for.body46:                                       ; preds = %for.inc40, %for.body46
  %indvars.iv79 = phi i64 [ %indvars.iv.next80, %for.body46 ], [ 0, %for.inc40 ]
  %arrayidx48 = getelementptr inbounds [3 x double], ptr %xyz, i64 0, i64 %indvars.iv79
  %14 = load double, ptr %arrayidx48, align 8
  %mul49 = fmul double %add11.i67, %14
  %mul50 = fmul double %weight.0, %mul49
  %arrayidx52 = getelementptr inbounds [3 x double], ptr @xyz_whitepoint, i64 0, i64 %indvars.iv79
  %15 = load double, ptr %arrayidx52, align 8
  %add53 = fadd double %15, %mul50
  store double %add53, ptr %arrayidx52, align 8
  %indvars.iv.next80 = add nuw nsw i64 %indvars.iv79, 1
  %exitcond82.not = icmp eq i64 %indvars.iv.next80, 3
  br i1 %exitcond82.not, label %for.inc57, label %for.body46, !llvm.loop !18

for.inc57:                                        ; preds = %for.body46
  %indvars.iv.next84 = add nuw nsw i64 %indvars.iv83, 1
  %exitcond86.not = icmp eq i64 %indvars.iv.next84, 283
  br i1 %exitcond86.not, label %for.end59, label %for.body, !llvm.loop !19

for.end59:                                        ; preds = %for.inc57
  ret void
}